target datalayout = "e-m:e-p270:32:32-p271:32:32-p272:64:64-i64:64-i128:128-f80:128-n8:16:32:64-S128"
target triple = "x86_64-pc-linux-gnu"

%struct.DdManager = type { %struct.DdNode, ptr, ptr, ptr, ptr, ptr, ptr, ptr, i32, i32, double, double, double, i32, i32, i32, i32, i32, i32, ptr, ptr, %struct.DdSubtable, i32, i32, i32, i32, i32, i32, i32, double, i32, i32, i32, ptr, i64, double, i32, ptr, ptr, ptr, ptr, ptr, ptr, ptr, i32, ptr, ptr, ptr, ptr, ptr, ptr, i32, i32, i32, double, i32, i32, i32, i32, double, double, i32, i32, i32, i32, i32, i32, i32, i32, i32, ptr, ptr, i32, i32, i32, i32, i32, i32, ptr, ptr, ptr, ptr, ptr, ptr, ptr, ptr, i32, i64, i64, i64, i32, i64, i64, double, double, double, double, double, double, i32, ptr, ptr, i64 }
%struct.DdNode = type { i32, i32, ptr, %union.anon, i64 }
%union.anon = type { %struct.DdChildren }
%struct.DdChildren = type { ptr, ptr }
%struct.DdSubtable = type { ptr, i32, i32, i32, i32, i32, i32, i32, i32, i32, i32, i32 }

; Function Attrs: nounwind uwtable
define ptr @Cudd_addDiff(ptr noundef %0, ptr noundef %1, ptr noundef %2) #0 {
  %4 = alloca ptr, align 8
  %5 = alloca ptr, align 8
  %6 = alloca ptr, align 8
  %7 = alloca ptr, align 8
  %8 = alloca ptr, align 8
  %9 = alloca ptr, align 8
  %10 = alloca i32, align 4
  store ptr %0, ptr %5, align 8, !tbaa !3
  store ptr %1, ptr %6, align 8, !tbaa !35
  store ptr %2, ptr %7, align 8, !tbaa !35
  call void @llvm.lifetime.start.p0(i64 8, ptr %8) #4
  call void @llvm.lifetime.start.p0(i64 8, ptr %9) #4
  %11 = load ptr, ptr %6, align 8, !tbaa !35
  %12 = load ptr, ptr %11, align 8, !tbaa !9
  store ptr %12, ptr %8, align 8, !tbaa !9
  %13 = load ptr, ptr %7, align 8, !tbaa !35
  %14 = load ptr, ptr %13, align 8, !tbaa !9
  store ptr %14, ptr %9, align 8, !tbaa !9
  %15 = load ptr, ptr %8, align 8, !tbaa !9
  %16 = load ptr, ptr %9, align 8, !tbaa !9
  %17 = icmp eq ptr %15, %16
  br i1 %17, label %18, label %22

18:                                               ; preds = %3
  %19 = load ptr, ptr %5, align 8, !tbaa !3
  %20 = getelementptr inbounds nuw %struct.DdManager, ptr %19, i32 0, i32 3
  %21 = load ptr, ptr %20, align 8, !tbaa !39
  store ptr %21, ptr %4, align 8
  store i32 1, ptr %10, align 4
  br label %73

22:                                               ; preds = %3
  %23 = load ptr, ptr %8, align 8, !tbaa !9
  %24 = load ptr, ptr %5, align 8, !tbaa !3
  %25 = getelementptr inbounds nuw %struct.DdManager, ptr %24, i32 0, i32 3
  %26 = load ptr, ptr %25, align 8, !tbaa !39
  %27 = icmp eq ptr %23, %26
  br i1 %27, label %28, label %30

28:                                               ; preds = %22
  %29 = load ptr, ptr %9, align 8, !tbaa !9
  store ptr %29, ptr %4, align 8
  store i32 1, ptr %10, align 4
  br label %73

30:                                               ; preds = %22
  %31 = load ptr, ptr %9, align 8, !tbaa !9
  %32 = load ptr, ptr %5, align 8, !tbaa !3
  %33 = getelementptr inbounds nuw %struct.DdManager, ptr %32, i32 0, i32 3
  %34 = load ptr, ptr %33, align 8, !tbaa !39
  %35 = icmp eq ptr %31, %34
  br i1 %35, label %36, label %38

36:                                               ; preds = %30
  %37 = load ptr, ptr %8, align 8, !tbaa !9
  store ptr %37, ptr %4, align 8
  store i32 1, ptr %10, align 4
  br label %73

38:                                               ; preds = %30
  %39 = load ptr, ptr %8, align 8, !tbaa !9
  %40 = getelementptr inbounds nuw %struct.DdNode, ptr %39, i32 0, i32 0
  %41 = load i32, ptr %40, align 8, !tbaa !30
  %42 = icmp eq i32 %41, 2147483647
  br i1 %42, label %43, label %72

43:                                               ; preds = %38
  %44 = load ptr, ptr %9, align 8, !tbaa !9
  %45 = getelementptr inbounds nuw %struct.DdNode, ptr %44, i32 0, i32 0
  %46 = load i32, ptr %45, align 8, !tbaa !30
  %47 = icmp eq i32 %46, 2147483647
  br i1 %47, label %48, label %72

48:                                               ; preds = %43
  %49 = load ptr, ptr %8, align 8, !tbaa !9
  %50 = getelementptr inbounds nuw %struct.DdNode, ptr %49, i32 0, i32 3
  %51 = load double, ptr %50, align 8, !tbaa !33
  %52 = load ptr, ptr %9, align 8, !tbaa !9
  %53 = getelementptr inbounds nuw %struct.DdNode, ptr %52, i32 0, i32 3
  %54 = load double, ptr %53, align 8, !tbaa !33
  %55 = fcmp une double %51, %54
  br i1 %55, label %56, label %68

56:                                               ; preds = %48
  %57 = load ptr, ptr %8, align 8, !tbaa !9
  %58 = getelementptr inbounds nuw %struct.DdNode, ptr %57, i32 0, i32 3
  %59 = load double, ptr %58, align 8, !tbaa !33
  %60 = load ptr, ptr %9, align 8, !tbaa !9
  %61 = getelementptr inbounds nuw %struct.DdNode, ptr %60, i32 0, i32 3
  %62 = load double, ptr %61, align 8, !tbaa !33
  %63 = fcmp olt double %59, %62
  br i1 %63, label %64, label %66

64:                                               ; preds = %56
  %65 = load ptr, ptr %8, align 8, !tbaa !9
  store ptr %65, ptr %4, align 8
  store i32 1, ptr %10, align 4
  br label %73

66:                                               ; preds = %56
  %67 = load ptr, ptr %9, align 8, !tbaa !9
  store ptr %67, ptr %4, align 8
  store i32 1, ptr %10, align 4
  br label %73

68:                                               ; preds = %48
  %69 = load ptr, ptr %5, align 8, !tbaa !3
  %70 = getelementptr inbounds nuw %struct.DdManager, ptr %69, i32 0, i32 3
  %71 = load ptr, ptr %70, align 8, !tbaa !39
  store ptr %71, ptr %4, align 8
  store i32 1, ptr %10, align 4
  br label %73

72:                                               ; preds = %43, %38
  store ptr null, ptr %4, align 8
  store i32 1, ptr %10, align 4
  br label %73

73:                                               ; preds = %72, %68, %66, %64, %36, %28, %18
  call void @llvm.lifetime.end.p0(i64 8, ptr %9) #4
  call void @llvm.lifetime.end.p0(i64 8, ptr %8) #4
  %74 = load ptr, ptr %4, align 8
  ret ptr %74
}