; Function Attrs: mustprogress nofree norecurse nosync nounwind willreturn memory(read, inaccessiblemem: none) uwtable
define ptr @Cudd_addDiff(ptr noundef readonly captures(none) %0, ptr noundef readonly captures(none) %1, ptr noundef readonly captures(none) %2) local_unnamed_addr #2 {
  %4 = load ptr, ptr %1, align 8, !tbaa !26
  %5 = load ptr, ptr %2, align 8, !tbaa !26
  %6 = icmp eq ptr %4, %5
  %7 = getelementptr inbounds nuw i8, ptr %0, i64 56
  %8 = load ptr, ptr %7, align 8, !tbaa !34
  br i1 %6, label %27, label %9

9:                                                ; preds = %3
  %10 = icmp eq ptr %4, %8
  br i1 %10, label %27, label %11

11:                                               ; preds = %9
  %12 = icmp eq ptr %5, %8
  br i1 %12, label %27, label %13

13:                                               ; preds = %11
  %14 = load i32, ptr %4, align 8, !tbaa !27
  %15 = icmp eq i32 %14, 2147483647
  br i1 %15, label %16, label %27

16:                                               ; preds = %13
  %17 = load i32, ptr %5, align 8, !tbaa !27
  %18 = icmp eq i32 %17, 2147483647
  br i1 %18, label %19, label %27

19:                                               ; preds = %16
  %20 = getelementptr inbounds nuw i8, ptr %4, i64 16
  %21 = load double, ptr %20, align 8, !tbaa !30
  %22 = getelementptr inbounds nuw i8, ptr %5, i64 16
  %23 = load double, ptr %22, align 8, !tbaa !30
  %24 = fcmp une double %21, %23
  br i1 %24, label %25, label %27

25:                                               ; preds = %19
  %26 = fcmp olt double %21, %23
  %. = select i1 %26, ptr %4, ptr %5
  br label %27

27:                                               ; preds = %3, %13, %16, %19, %25, %11, %9
  %.0 = phi ptr [ %5, %9 ], [ %4, %11 ], [ %., %25 ], [ %8, %19 ], [ null, %16 ], [ null, %13 ], [ %8, %3 ]
  ret ptr %.0
}